; Function Attrs: nounwind uwtable
define void @lv_draw_sw_layer(ptr noundef %0, ptr nocapture noundef readonly %1, ptr noundef %2) local_unnamed_addr #0 {
  %4 = alloca %struct._lv_draw_image_dsc_t, align 8
  %5 = getelementptr inbounds nuw i8, ptr %1, i64 48
  %6 = load ptr, ptr %5, align 8, !tbaa !3
  %7 = load ptr, ptr %6, align 8, !tbaa !16
  %8 = icmp eq ptr %7, null
  br i1 %8, label %16, label %9

9:                                                ; preds = %3
  call void @llvm.lifetime.start.p0(i64 144, ptr nonnull %4) #5
  call void @llvm.memcpy.p0.p0.i64(ptr noundef nonnull align 8 dereferenceable(144) %4, ptr noundef nonnull align 8 dereferenceable(144) %1, i64 144, i1 false), !tbaa.struct !19
  %10 = getelementptr inbounds nuw i8, ptr %4, i64 48
  store ptr %7, ptr %10, align 8, !tbaa !3
  %11 = getelementptr inbounds nuw i8, ptr %4, i64 101
  %12 = load i8, ptr %11, align 1
  %13 = and i8 %12, 32
  %.not.i = icmp eq i8 %13, 0
  br i1 %.not.i, label %14, label %15

14:                                               ; preds = %9
  call void @lv_draw_image_normal_helper(ptr noundef %0, ptr noundef nonnull %4, ptr noundef %2, ptr noundef nonnull @img_draw_core) #5
  br label %lv_draw_sw_image.exit

15:                                               ; preds = %9
  call void @lv_draw_image_tiled_helper(ptr noundef %0, ptr noundef nonnull %4, ptr noundef %2, ptr noundef nonnull @img_draw_core) #5
  br label %lv_draw_sw_image.exit

lv_draw_sw_image.exit:                            ; preds = %14, %15
  call void @llvm.lifetime.end.p0(i64 144, ptr nonnull %4) #5
  br label %16

16:                                               ; preds = %3, %lv_draw_sw_image.exit
  ret void
}